target datalayout = "e-m:e-p270:32:32-p271:32:32-p272:64:64-i64:64-i128:128-f80:128-n8:16:32:64-S128"
target triple = "x86_64-pc-linux-gnu"

%struct.pmix_list_t = type { %struct.pmix_object_t, %struct.pmix_list_item_t, i64 }
%struct.pmix_object_t = type { %union.pthread_mutex_t, ptr, i32, %struct.pmix_tma }
%union.pthread_mutex_t = type { %struct.__pthread_mutex_s }
%struct.__pthread_mutex_s = type { i32, i32, i32, i32, i32, i16, i16, %struct.__pthread_internal_list }
%struct.__pthread_internal_list = type { ptr, ptr }
%struct.pmix_tma = type { ptr, ptr, ptr, ptr, ptr, ptr, ptr, ptr }
%struct.pmix_list_item_t = type { %struct.pmix_object_t, ptr, ptr, i32 }
%struct.prte_attribute_t = type { %struct.pmix_list_item_t, i16, i8, %struct.pmix_value }
%struct.pmix_value = type { i16, %union.anon }
%union.anon = type { %struct.pmix_envar_t }
%struct.pmix_envar_t = type { ptr, ptr, i8 }

@.str = private unnamed_addr constant [37 x i8] c"PRTE ERROR: %s in file %s at line %d\00", align 1
@.str.1 = private unnamed_addr constant [7 x i8] c"attr.c\00", align 1
@.str.2 = private unnamed_addr constant [14 x i8] c"KV %s TYPE %s\00", align 1

; Function Attrs: nounwind uwtable
define zeroext i1 @prte_get_attribute(ptr noundef %0, i16 noundef zeroext %1, ptr noundef %2, i16 noundef zeroext %3) #0 {
  %5 = alloca i1, align 1
  %6 = alloca ptr, align 8
  %7 = alloca i16, align 2
  %8 = alloca ptr, align 8
  %9 = alloca i16, align 2
  %10 = alloca ptr, align 8
  %11 = alloca i32, align 4
  %12 = alloca i32, align 4
  store ptr %0, ptr %6, align 8, !tbaa !3
  store i16 %1, ptr %7, align 2, !tbaa !8
  store ptr %2, ptr %8, align 8, !tbaa !10
  store i16 %3, ptr %9, align 2, !tbaa !8
  call void @llvm.lifetime.start.p0(i64 8, ptr %10) #11
  call void @llvm.lifetime.start.p0(i64 4, ptr %11) #11
  %13 = load ptr, ptr %6, align 8, !tbaa !3
  %14 = getelementptr inbounds nuw %struct.pmix_list_t, ptr %13, i32 0, i32 1
  %15 = getelementptr inbounds nuw %struct.pmix_list_item_t, ptr %14, i32 0, i32 1
  %16 = load ptr, ptr %15, align 8, !tbaa !11
  store ptr %16, ptr %10, align 8, !tbaa !10
  br label %17

17:                                               ; preds = %73, %4
  %18 = load ptr, ptr %10, align 8, !tbaa !10
  %19 = load ptr, ptr %6, align 8, !tbaa !3
  %20 = getelementptr inbounds nuw %struct.pmix_list_t, ptr %19, i32 0, i32 1
  %21 = icmp ne ptr %18, %20
  br i1 %21, label %22, label %77

22:                                               ; preds = %17
  %23 = load i16, ptr %7, align 2, !tbaa !8
  %24 = zext i16 %23 to i32
  %25 = load ptr, ptr %10, align 8, !tbaa !10
  %26 = getelementptr inbounds nuw %struct.prte_attribute_t, ptr %25, i32 0, i32 1
  %27 = load i16, ptr %26, align 8, !tbaa !20
  %28 = zext i16 %27 to i32
  %29 = icmp eq i32 %24, %28
  br i1 %29, label %30, label %72

30:                                               ; preds = %22
  %31 = load ptr, ptr %10, align 8, !tbaa !10
  %32 = getelementptr inbounds nuw %struct.prte_attribute_t, ptr %31, i32 0, i32 3
  %33 = getelementptr inbounds nuw %struct.pmix_value, ptr %32, i32 0, i32 0
  %34 = load i16, ptr %33, align 8, !tbaa !24
  %35 = zext i16 %34 to i32
  %36 = load i16, ptr %9, align 2, !tbaa !8
  %37 = zext i16 %36 to i32
  %38 = icmp ne i32 %35, %37
  br i1 %38, label %39, label %51

39:                                               ; preds = %30
  br label %40

40:                                               ; preds = %39
  %41 = call ptr @prte_strerror(i32 noundef -27)
  call void (i32, ptr, ...) @pmix_output(i32 noundef 0, ptr noundef @.str, ptr noundef %41, ptr noundef @.str.1, i32 noundef 55)
  br label %42

42:                                               ; preds = %40
  br label %43

43:                                               ; preds = %42
  %44 = load ptr, ptr %10, align 8, !tbaa !10
  %45 = getelementptr inbounds nuw %struct.prte_attribute_t, ptr %44, i32 0, i32 3
  %46 = getelementptr inbounds nuw %struct.pmix_value, ptr %45, i32 0, i32 0
  %47 = load i16, ptr %46, align 8, !tbaa !24
  %48 = call ptr @PMIx_Data_type_string(i16 noundef zeroext %47)
  %49 = load i16, ptr %9, align 2, !tbaa !8
  %50 = call ptr @PMIx_Data_type_string(i16 noundef zeroext %49)
  call void (i32, ptr, ...) @pmix_output(i32 noundef 0, ptr noundef @.str.2, ptr noundef %48, ptr noundef %50)
  store i1 false, ptr %5, align 1
  store i32 1, ptr %12, align 4
  br label %78

51:                                               ; preds = %30
  %52 = load ptr, ptr %8, align 8, !tbaa !10
  %53 = icmp ne ptr null, %52
  br i1 %53, label %54, label %71

54:                                               ; preds = %51
  %55 = load ptr, ptr %10, align 8, !tbaa !10
  %56 = load ptr, ptr %8, align 8, !tbaa !10
  %57 = load i16, ptr %9, align 2, !tbaa !8
  %58 = call i32 @prte_attr_unload(ptr noundef %55, ptr noundef %56, i16 noundef zeroext %57)
  store i32 %58, ptr %11, align 4, !tbaa !25
  %59 = icmp ne i32 0, %58
  br i1 %59, label %60, label %70

60:                                               ; preds = %54
  br label %61

61:                                               ; preds = %60
  %62 = load i32, ptr %11, align 4, !tbaa !25
  %63 = icmp ne i32 -43, %62
  br i1 %63, label %64, label %67

64:                                               ; preds = %61
  %65 = load i32, ptr %11, align 4, !tbaa !25
  %66 = call ptr @prte_strerror(i32 noundef %65)
  call void (i32, ptr, ...) @pmix_output(i32 noundef 0, ptr noundef @.str, ptr noundef %66, ptr noundef @.str.1, i32 noundef 61)
  br label %67

67:                                               ; preds = %64, %61
  br label %68

68:                                               ; preds = %67
  br label %69

69:                                               ; preds = %68
  br label %70

70:                                               ; preds = %69, %54
  br label %71

71:                                               ; preds = %70, %51
  store i1 true, ptr %5, align 1
  store i32 1, ptr %12, align 4
  br label %78

72:                                               ; preds = %22
  br label %73

73:                                               ; preds = %72
  %74 = load ptr, ptr %10, align 8, !tbaa !10
  %75 = getelementptr inbounds nuw %struct.pmix_list_item_t, ptr %74, i32 0, i32 1
  %76 = load ptr, ptr %75, align 8, !tbaa !26
  store ptr %76, ptr %10, align 8, !tbaa !10
  br label %17, !llvm.loop !27

77:                                               ; preds = %17
  store i1 false, ptr %5, align 1
  store i32 1, ptr %12, align 4
  br label %78

78:                                               ; preds = %77, %71, %43
  call void @llvm.lifetime.end.p0(i64 4, ptr %11) #11
  call void @llvm.lifetime.end.p0(i64 8, ptr %10) #11
  %79 = load i1, ptr %5, align 1
  ret i1 %79
}