; Function Attrs: nounwind uwtable
define noundef zeroext i1 @prte_get_attribute(ptr noundef readonly captures(address) %0, i16 noundef zeroext %1, ptr noundef captures(address_is_null) %2, i16 noundef zeroext %3) local_unnamed_addr #0 {
  %5 = getelementptr inbounds nuw i8, ptr %0, i64 120
  %6 = getelementptr inbounds nuw i8, ptr %0, i64 240
  %.01723 = load ptr, ptr %6, align 8, !tbaa !3
  %.not24 = icmp eq ptr %.01723, %5
  br i1 %.not24, label %.loopexit, label %.lr.ph

.lr.ph:                                           ; preds = %4, %23
  %.01725 = phi ptr [ %.017, %23 ], [ %.01723, %4 ]
  %7 = getelementptr inbounds nuw i8, ptr %.01725, i64 144
  %8 = load i16, ptr %7, align 8, !tbaa !13
  %9 = icmp eq i16 %1, %8
  br i1 %9, label %10, label %23

10:                                               ; preds = %.lr.ph
  %11 = getelementptr inbounds nuw i8, ptr %.01725, i64 152
  %12 = load i16, ptr %11, align 8, !tbaa !18
  %.not20 = icmp eq i16 %12, %3
  br i1 %.not20, label %18, label %13

13:                                               ; preds = %10
  %14 = tail call ptr @prte_strerror(i32 noundef -27) #13
  tail call void (i32, ptr, ...) @pmix_output(i32 noundef 0, ptr noundef nonnull @.str, ptr noundef %14, ptr noundef nonnull @.str.1, i32 noundef 55) #13
  %15 = load i16, ptr %11, align 8, !tbaa !18
  %16 = tail call ptr @PMIx_Data_type_string(i16 noundef zeroext %15) #13
  %17 = tail call ptr @PMIx_Data_type_string(i16 noundef zeroext %3) #13
  tail call void (i32, ptr, ...) @pmix_output(i32 noundef 0, ptr noundef nonnull @.str.2, ptr noundef %16, ptr noundef %17) #13
  br label %.loopexit

18:                                               ; preds = %10
  %.not21 = icmp eq ptr %2, null
  br i1 %.not21, label %.loopexit, label %19

19:                                               ; preds = %18
  %20 = tail call i32 @prte_attr_unload(ptr noundef nonnull %.01725, ptr noundef nonnull %2, i16 noundef zeroext %3)
  switch i32 %20, label %21 [
    i32 -43, label %.loopexit
    i32 0, label %.loopexit
  ]

21:                                               ; preds = %19
  %22 = tail call ptr @prte_strerror(i32 noundef %20) #13
  tail call void (i32, ptr, ...) @pmix_output(i32 noundef 0, ptr noundef nonnull @.str, ptr noundef %22, ptr noundef nonnull @.str.1, i32 noundef 61) #13
  br label %.loopexit

23:                                               ; preds = %.lr.ph
  %24 = getelementptr inbounds nuw i8, ptr %.01725, i64 120
  %.017 = load ptr, ptr %24, align 8, !tbaa !3
  %.not = icmp eq ptr %.017, %5
  br i1 %.not, label %.loopexit, label %.lr.ph, !llvm.loop !19

.loopexit:                                        ; preds = %23, %4, %18, %21, %19, %19, %13
  %.0 = phi i1 [ false, %13 ], [ true, %19 ], [ true, %19 ], [ true, %21 ], [ true, %18 ], [ false, %4 ], [ false, %23 ]
  ret i1 %.0
}